target datalayout = "e-m:e-p270:32:32-p271:32:32-p272:64:64-i64:64-i128:128-f80:128-n8:16:32:64-S128"
target triple = "x86_64-pc-linux-gnu"

%struct.ossl_cmp_itav_st = type { ptr, %union.anon }
%union.anon = type { ptr }
%struct.ossl_cmp_rootcakeyupdate_st = type { ptr, ptr, ptr }

@OSSL_CMP_ITAV_it.local_it = internal constant { i8, [7 x i8], i64, ptr, i64, ptr, i64, ptr } { i8 1, [7 x i8] zeroinitializer, i64 16, ptr @OSSL_CMP_ITAV_seq_tt, i64 2, ptr null, i64 16, ptr @.str.6 }, align 8
@OSSL_CMP_ROOTCAKEYUPDATE_it.local_it = internal constant { i8, [7 x i8], i64, ptr, i64, ptr, i64, ptr } { i8 1, [7 x i8] zeroinitializer, i64 16, ptr @OSSL_CMP_ROOTCAKEYUPDATE_seq_tt, i64 3, ptr null, i64 24, ptr @.str.7 }, align 8

; Function Attrs: nounwind uwtable
define ptr @OSSL_CMP_ITAV_it() #0 {
  ret ptr @OSSL_CMP_ITAV_it.local_it
}

; Function Attrs: nounwind uwtable
define ptr @OSSL_CMP_ROOTCAKEYUPDATE_it() #0 {
  ret ptr @OSSL_CMP_ROOTCAKEYUPDATE_it.local_it
}

; Function Attrs: nounwind uwtable
define void @OSSL_CMP_ROOTCAKEYUPDATE_free(ptr noundef %0) #0 {
  %2 = alloca ptr, align 8
  store ptr %0, ptr %2, align 8, !tbaa !32
  %3 = load ptr, ptr %2, align 8, !tbaa !32
  %4 = call ptr @OSSL_CMP_ROOTCAKEYUPDATE_it()
  call void @ASN1_item_free(ptr noundef %3, ptr noundef %4)
  ret void
}

; Function Attrs: nounwind uwtable
define ptr @OSSL_CMP_ITAV_new() #0 {
  %1 = call ptr @OSSL_CMP_ITAV_it()
  %2 = call ptr @ASN1_item_new(ptr noundef %1)
  ret ptr %2
}

; Function Attrs: nounwind uwtable
define ptr @OSSL_CMP_ROOTCAKEYUPDATE_new() #0 {
  %1 = call ptr @OSSL_CMP_ROOTCAKEYUPDATE_it()
  %2 = call ptr @ASN1_item_new(ptr noundef %1)
  ret ptr %2
}

; Function Attrs: nounwind uwtable
define ptr @OSSL_CMP_ITAV_new_rootCaKeyUpdate(ptr noundef %0, ptr noundef %1, ptr noundef %2) #0 {
  %4 = alloca ptr, align 8
  %5 = alloca ptr, align 8
  %6 = alloca ptr, align 8
  %7 = alloca ptr, align 8
  %8 = alloca ptr, align 8
  %9 = alloca ptr, align 8
  %10 = alloca i32, align 4
  store ptr %0, ptr %5, align 8, !tbaa !72
  store ptr %1, ptr %6, align 8, !tbaa !72
  store ptr %2, ptr %7, align 8, !tbaa !72
  call void @llvm.lifetime.start.p0(i64 8, ptr %8) #4
  call void @llvm.lifetime.start.p0(i64 8, ptr %9) #4
  store ptr null, ptr %9, align 8, !tbaa !32
  %11 = load ptr, ptr %5, align 8, !tbaa !72
  %12 = icmp ne ptr %11, null
  br i1 %12, label %13, label %46

13:                                               ; preds = %3
  %14 = call ptr @OSSL_CMP_ROOTCAKEYUPDATE_new()
  store ptr %14, ptr %9, align 8, !tbaa !32
  %15 = load ptr, ptr %9, align 8, !tbaa !32
  %16 = icmp eq ptr %15, null
  br i1 %16, label %17, label %18

17:                                               ; preds = %13
  store ptr null, ptr %4, align 8
  store i32 1, ptr %10, align 4
  br label %60

18:                                               ; preds = %13
  %19 = load ptr, ptr %5, align 8, !tbaa !72
  %20 = call ptr @X509_dup(ptr noundef %19)
  %21 = load ptr, ptr %9, align 8, !tbaa !32
  %22 = getelementptr inbounds nuw %struct.ossl_cmp_rootcakeyupdate_st, ptr %21, i32 0, i32 0
  store ptr %20, ptr %22, align 8, !tbaa !76
  %23 = icmp eq ptr %20, null
  br i1 %23, label %24, label %25

24:                                               ; preds = %18
  br label %58

25:                                               ; preds = %18
  %26 = load ptr, ptr %6, align 8, !tbaa !72
  %27 = icmp ne ptr %26, null
  br i1 %27, label %28, label %35

28:                                               ; preds = %25
  %29 = load ptr, ptr %6, align 8, !tbaa !72
  %30 = call ptr @X509_dup(ptr noundef %29)
  %31 = load ptr, ptr %9, align 8, !tbaa !32
  %32 = getelementptr inbounds nuw %struct.ossl_cmp_rootcakeyupdate_st, ptr %31, i32 0, i32 1
  store ptr %30, ptr %32, align 8, !tbaa !78
  %33 = icmp eq ptr %30, null
  br i1 %33, label %34, label %35

34:                                               ; preds = %28
  br label %58

35:                                               ; preds = %28, %25
  %36 = load ptr, ptr %7, align 8, !tbaa !72
  %37 = icmp ne ptr %36, null
  br i1 %37, label %38, label %45

38:                                               ; preds = %35
  %39 = load ptr, ptr %7, align 8, !tbaa !72
  %40 = call ptr @X509_dup(ptr noundef %39)
  %41 = load ptr, ptr %9, align 8, !tbaa !32
  %42 = getelementptr inbounds nuw %struct.ossl_cmp_rootcakeyupdate_st, ptr %41, i32 0, i32 2
  store ptr %40, ptr %42, align 8, !tbaa !79
  %43 = icmp eq ptr %40, null
  br i1 %43, label %44, label %45

44:                                               ; preds = %38
  br label %58

45:                                               ; preds = %38, %35
  br label %46

46:                                               ; preds = %45, %3
  %47 = call ptr @OSSL_CMP_ITAV_new()
  store ptr %47, ptr %8, align 8, !tbaa !28
  %48 = icmp eq ptr %47, null
  br i1 %48, label %49, label %50

49:                                               ; preds = %46
  br label %58

50:                                               ; preds = %46
  %51 = call ptr @OBJ_nid2obj(i32 noundef 1224)
  %52 = load ptr, ptr %8, align 8, !tbaa !28
  %53 = getelementptr inbounds nuw %struct.ossl_cmp_itav_st, ptr %52, i32 0, i32 0
  store ptr %51, ptr %53, align 8, !tbaa !54
  %54 = load ptr, ptr %9, align 8, !tbaa !32
  %55 = load ptr, ptr %8, align 8, !tbaa !28
  %56 = getelementptr inbounds nuw %struct.ossl_cmp_itav_st, ptr %55, i32 0, i32 1
  store ptr %54, ptr %56, align 8, !tbaa !56
  %57 = load ptr, ptr %8, align 8, !tbaa !28
  store ptr %57, ptr %4, align 8
  store i32 1, ptr %10, align 4
  br label %60

58:                                               ; preds = %49, %44, %34, %24
  %59 = load ptr, ptr %9, align 8, !tbaa !32
  call void @OSSL_CMP_ROOTCAKEYUPDATE_free(ptr noundef %59)
  store ptr null, ptr %4, align 8
  store i32 1, ptr %10, align 4
  br label %60

60:                                               ; preds = %58, %50, %17
  call void @llvm.lifetime.end.p0(i64 8, ptr %9) #4
  call void @llvm.lifetime.end.p0(i64 8, ptr %8) #4
  %61 = load ptr, ptr %4, align 8
  ret ptr %61
}