; Function Attrs: nounwind uwtable
define ptr @OSSL_CMP_ITAV_new_rootCaKeyUpdate(ptr noundef %0, ptr noundef %1, ptr noundef %2) local_unnamed_addr #1 {
  %.not = icmp eq ptr %0, null
  br i1 %.not, label %20, label %4

4:                                                ; preds = %3
  %5 = tail call ptr @ASN1_item_new(ptr noundef nonnull @OSSL_CMP_ROOTCAKEYUPDATE_it.local_it) #6
  %6 = icmp eq ptr %5, null
  br i1 %6, label %27, label %7

7:                                                ; preds = %4
  %8 = tail call ptr @X509_dup(ptr noundef nonnull %0) #6
  store ptr %8, ptr %5, align 8, !tbaa !18
  %9 = icmp eq ptr %8, null
  br i1 %9, label %26, label %10

10:                                               ; preds = %7
  %.not22 = icmp eq ptr %1, null
  br i1 %.not22, label %15, label %11

11:                                               ; preds = %10
  %12 = tail call ptr @X509_dup(ptr noundef nonnull %1) #6
  %13 = getelementptr inbounds nuw i8, ptr %5, i64 8
  store ptr %12, ptr %13, align 8, !tbaa !20
  %14 = icmp eq ptr %12, null
  br i1 %14, label %26, label %15

15:                                               ; preds = %11, %10
  %.not23 = icmp eq ptr %2, null
  br i1 %.not23, label %20, label %16

16:                                               ; preds = %15
  %17 = tail call ptr @X509_dup(ptr noundef nonnull %2) #6
  %18 = getelementptr inbounds nuw i8, ptr %5, i64 16
  store ptr %17, ptr %18, align 8, !tbaa !21
  %19 = icmp eq ptr %17, null
  br i1 %19, label %26, label %20

20:                                               ; preds = %15, %16, %3
  %.0 = phi ptr [ %5, %16 ], [ %5, %15 ], [ null, %3 ]
  %21 = tail call ptr @ASN1_item_new(ptr noundef nonnull @OSSL_CMP_ITAV_it.local_it) #6
  %22 = icmp eq ptr %21, null
  br i1 %22, label %26, label %23

23:                                               ; preds = %20
  %24 = tail call ptr @OBJ_nid2obj(i32 noundef 1224) #6
  store ptr %24, ptr %21, align 8, !tbaa !3
  %25 = getelementptr inbounds nuw i8, ptr %21, i64 8
  store ptr %.0, ptr %25, align 8, !tbaa !9
  br label %27

26:                                               ; preds = %20, %16, %11, %7
  %.1 = phi ptr [ %5, %7 ], [ %5, %11 ], [ %5, %16 ], [ %.0, %20 ]
  tail call void @ASN1_item_free(ptr noundef %.1, ptr noundef nonnull @OSSL_CMP_ROOTCAKEYUPDATE_it.local_it) #6
  br label %27

27:                                               ; preds = %4, %26, %23
  %.016 = phi ptr [ null, %26 ], [ %21, %23 ], [ null, %4 ]
  ret ptr %.016
}